; ModuleID = '17/1230.c'
source_filename = "17/1230.c"
target datalayout = "e-m:e-p270:32:32-p271:32:32-p272:64:64-i64:64-f80:128-n8:16:32:64-S128"
target triple = "x86_64-pc-linux-gnu"

; Function Attrs: noinline nounwind uwtable
define dso_local void @f(i8* %0, i8* %1, i32 %2) #0 {
  %4 = alloca i8*, align 8
  %5 = alloca i8*, align 8
  %6 = alloca i32, align 4
  %7 = alloca i32, align 4
  %8 = alloca i32, align 4
  %9 = alloca i32, align 4
  store i8* %0, i8** %4, align 8
  store i8* %1, i8** %5, align 8
  store i32 %2, i32* %6, align 4
  store i32 0, i32* %8, align 4
  br label %10

10:                                               ; preds = %126, %3
  %11 = load i32, i32* %8, align 4
  %12 = load i32, i32* %6, align 4
  %13 = sub nsw i32 %12, 1
  %14 = icmp sle i32 %11, %13
  br i1 %14, label %15, label %129

15:                                               ; preds = %10
  %16 = load i8*, i8** %4, align 8
  %17 = load i32, i32* %8, align 4
  %18 = sext i32 %17 to i64
  %19 = getelementptr inbounds i8, i8* %16, i64 %18
  %20 = load i8, i8* %19, align 1
  %21 = sext i8 %20 to i32
  %22 = icmp eq i32 %21, 40
  br i1 %22, label %23, label %71

23:                                               ; preds = %15
  store i32 1, i32* %7, align 4
  %24 = load i32, i32* %8, align 4
  %25 = add nsw i32 %24, 1
  store i32 %25, i32* %9, align 4
  br label %26

26:                                               ; preds = %59, %23
  %27 = load i32, i32* %9, align 4
  %28 = load i32, i32* %6, align 4
  %29 = sub nsw i32 %28, 1
  %30 = icmp sle i32 %27, %29
  br i1 %30, label %31, label %62

31:                                               ; preds = %26
  %32 = load i8*, i8** %4, align 8
  %33 = load i32, i32* %9, align 4
  %34 = sext i32 %33 to i64
  %35 = getelementptr inbounds i8, i8* %32, i64 %34
  %36 = load i8, i8* %35, align 1
  %37 = sext i8 %36 to i32
  %38 = icmp eq i32 %37, 40
  br i1 %38, label %39, label %42

39:                                               ; preds = %31
  %40 = load i32, i32* %7, align 4
  %41 = add nsw i32 %40, 1
  store i32 %41, i32* %7, align 4
  br label %54

42:                                               ; preds = %31
  %43 = load i8*, i8** %4, align 8
  %44 = load i32, i32* %9, align 4
  %45 = sext i32 %44 to i64
  %46 = getelementptr inbounds i8, i8* %43, i64 %45
  %47 = load i8, i8* %46, align 1
  %48 = sext i8 %47 to i32
  %49 = icmp eq i32 %48, 41
  br i1 %49, label %50, label %53

50:                                               ; preds = %42
  %51 = load i32, i32* %7, align 4
  %52 = add nsw i32 %51, -1
  store i32 %52, i32* %7, align 4
  br label %53

53:                                               ; preds = %50, %42
  br label %54

54:                                               ; preds = %53, %39
  %55 = load i32, i32* %7, align 4
  %56 = icmp eq i32 %55, 0
  br i1 %56, label %57, label %58

57:                                               ; preds = %54
  br label %62

58:                                               ; preds = %54
  br label %59

59:                                               ; preds = %58
  %60 = load i32, i32* %9, align 4
  %61 = add nsw i32 %60, 1
  store i32 %61, i32* %9, align 4
  br label %26

62:                                               ; preds = %57, %26
  %63 = load i32, i32* %7, align 4
  %64 = icmp sgt i32 %63, 0
  br i1 %64, label %65, label %70

65:                                               ; preds = %62
  %66 = load i8*, i8** %5, align 8
  %67 = load i32, i32* %8, align 4
  %68 = sext i32 %67 to i64
  %69 = getelementptr inbounds i8, i8* %66, i64 %68
  store i8 36, i8* %69, align 1
  br label %70

70:                                               ; preds = %65, %62
  br label %71

71:                                               ; preds = %70, %15
  %72 = load i8*, i8** %4, align 8
  %73 = load i32, i32* %8, align 4
  %74 = sext i32 %73 to i64
  %75 = getelementptr inbounds i8, i8* %72, i64 %74
  %76 = load i8, i8* %75, align 1
  %77 = sext i8 %76 to i32
  %78 = icmp eq i32 %77, 41
  br i1 %78, label %79, label %125

79:                                               ; preds = %71
  store i32 -1, i32* %7, align 4
  %80 = load i32, i32* %8, align 4
  %81 = sub nsw i32 %80, 1
  store i32 %81, i32* %9, align 4
  br label %82

82:                                               ; preds = %113, %79
  %83 = load i32, i32* %9, align 4
  %84 = icmp sge i32 %83, 0
  br i1 %84, label %85, label %116

85:                                               ; preds = %82
  %86 = load i8*, i8** %4, align 8
  %87 = load i32, i32* %9, align 4
  %88 = sext i32 %87 to i64
  %89 = getelementptr inbounds i8, i8* %86, i64 %88
  %90 = load i8, i8* %89, align 1
  %91 = sext i8 %90 to i32
  %92 = icmp eq i32 %91, 41
  br i1 %92, label %93, label %96

93:                                               ; preds = %85
  %94 = load i32, i32* %7, align 4
  %95 = add nsw i32 %94, -1
  store i32 %95, i32* %7, align 4
  br label %108

96:                                               ; preds = %85
  %97 = load i8*, i8** %4, align 8
  %98 = load i32, i32* %9, align 4
  %99 = sext i32 %98 to i64
  %100 = getelementptr inbounds i8, i8* %97, i64 %99
  %101 = load i8, i8* %100, align 1
  %102 = sext i8 %101 to i32
  %103 = icmp eq i32 %102, 40
  br i1 %103, label %104, label %107

104:                                              ; preds = %96
  %105 = load i32, i32* %7, align 4
  %106 = add nsw i32 %105, 1
  store i32 %106, i32* %7, align 4
  br label %107

107:                                              ; preds = %104, %96
  br label %108

108:                                              ; preds = %107, %93
  %109 = load i32, i32* %7, align 4
  %110 = icmp eq i32 %109, 0
  br i1 %110, label %111, label %112

111:                                              ; preds = %108
  br label %116

112:                                              ; preds = %108
  br label %113

113:                                              ; preds = %112
  %114 = load i32, i32* %9, align 4
  %115 = add nsw i32 %114, -1
  store i32 %115, i32* %9, align 4
  br label %82

116:                                              ; preds = %111, %82
  %117 = load i32, i32* %7, align 4
  %118 = icmp slt i32 %117, 0
  br i1 %118, label %119, label %124

119:                                              ; preds = %116
  %120 = load i8*, i8** %5, align 8
  %121 = load i32, i32* %8, align 4
  %122 = sext i32 %121 to i64
  %123 = getelementptr inbounds i8, i8* %120, i64 %122
  store i8 63, i8* %123, align 1
  br label %124

124:                                              ; preds = %119, %116
  br label %125

125:                                              ; preds = %124, %71
  br label %126

126:                                              ; preds = %125
  %127 = load i32, i32* %8, align 4
  %128 = add nsw i32 %127, 1
  store i32 %128, i32* %8, align 4
  br label %10

129:                                              ; preds = %10
  ret void
}

; Function Attrs: noinline nounwind uwtable
define dso_local i32 @main() #0 {
  %1 = alloca i32, align 4
  %2 = alloca i32, align 4
  %3 = alloca [110 x i8], align 16
  %4 = alloca [110 x i8], align 16
  %5 = alloca i32, align 4
  %6 = alloca i32, align 4
  store i32 0, i32* %1, align 4
  store i32 0, i32* %2, align 4
  br label %7

7:                                                ; preds = %30, %0
  %8 = load i32, i32* %2, align 4
  %9 = icmp sle i32 %8, 5
  br i1 %9, label %10, label %40

10:                                               ; preds = %7
  %11 = bitcast [110 x i8]* %3 to i8*
  call void @llvm.memset.p0i8.i64(i8* align 16 %11, i8 0, i64 110, i1 false)
  %12 = bitcast [110 x i8]* %4 to i8*
  call void @llvm.memset.p0i8.i64(i8* align 16 %12, i8 0, i64 110, i1 false)
  %13 = getelementptr inbounds [110 x i8], [110 x i8]* %3, i64 0, i64 0
  %14 = call i32 (i8*, ...) bitcast (i32 (...)* @gets to i32 (i8*, ...)*)(i8* %13)
  %15 = getelementptr inbounds [110 x i8], [110 x i8]* %3, i64 0, i64 0
  %16 = call i64 @strlen(i8* %15) #4
  %17 = trunc i64 %16 to i32
  store i32 %17, i32* %5, align 4
  store i32 0, i32* %6, align 4
  br label %18

18:                                               ; preds = %27, %10
  %19 = load i32, i32* %6, align 4
  %20 = load i32, i32* %5, align 4
  %21 = sub nsw i32 %20, 1
  %22 = icmp sle i32 %19, %21
  br i1 %22, label %23, label %30

23:                                               ; preds = %18
  %24 = load i32, i32* %6, align 4
  %25 = sext i32 %24 to i64
  %26 = getelementptr inbounds [110 x i8], [110 x i8]* %4, i64 0, i64 %25
  store i8 32, i8* %26, align 1
  br label %27

27:                                               ; preds = %23
  %28 = load i32, i32* %6, align 4
  %29 = add nsw i32 %28, 1
  store i32 %29, i32* %6, align 4
  br label %18

30:                                               ; preds = %18
  %31 = getelementptr inbounds [110 x i8], [110 x i8]* %3, i64 0, i64 0
  %32 = getelementptr inbounds [110 x i8], [110 x i8]* %4, i64 0, i64 0
  %33 = load i32, i32* %5, align 4
  call void @f(i8* %31, i8* %32, i32 %33)
  %34 = getelementptr inbounds [110 x i8], [110 x i8]* %3, i64 0, i64 0
  %35 = call i32 @puts(i8* %34)
  %36 = getelementptr inbounds [110 x i8], [110 x i8]* %4, i64 0, i64 0
  %37 = call i32 @puts(i8* %36)
  %38 = load i32, i32* %2, align 4
  %39 = add nsw i32 %38, 1
  store i32 %39, i32* %2, align 4
  br label %7

40:                                               ; preds = %7
  ret i32 0
}

; Function Attrs: argmemonly nounwind willreturn
declare void @llvm.memset.p0i8.i64(i8* nocapture writeonly, i8, i64, i1 immarg) #1

declare dso_local i32 @gets(...) #2

; Function Attrs: nounwind readonly
declare dso_local i64 @strlen(i8*) #3

declare dso_local i32 @puts(i8*) #2


!llvm.module.flags = !{!0}
!llvm.ident = !{!1}

!0 = !{i32 1, !"wchar_size", i32 4}
!1 = !{!"clang version 10.0.0-4ubuntu1 "}
